; ModuleID = '22/437.c'
source_filename = "22/437.c"
target datalayout = "e-m:e-p270:32:32-p271:32:32-p272:64:64-i64:64-f80:128-n8:16:32:64-S128"
target triple = "x86_64-pc-linux-gnu"

@.str = private unnamed_addr constant [5 x i8] c"%d%c\00", align 1
@.str.1 = private unnamed_addr constant [3 x i8] c"No\00", align 1
@.str.2 = private unnamed_addr constant [3 x i8] c"%d\00", align 1

; Function Attrs: noinline nounwind uwtable
define dso_local void @main() #0 {
  %1 = alloca [300 x i32], align 16
  %2 = alloca i32, align 4
  %3 = alloca i32, align 4
  %4 = alloca i32, align 4
  %5 = alloca i32, align 4
  %6 = alloca i32, align 4
  %7 = alloca i32, align 4
  %8 = alloca i8, align 1
  store i32 0, i32* %2, align 4
  br label %9

9:                                                ; preds = %23, %0
  %10 = load i32, i32* %2, align 4
  %11 = icmp slt i32 %10, 300
  br i1 %11, label %12, label %26

12:                                               ; preds = %9
  %13 = load i32, i32* %2, align 4
  %14 = sext i32 %13 to i64
  %15 = getelementptr inbounds [300 x i32], [300 x i32]* %1, i64 0, i64 %14
  %16 = call i32 (i8*, ...) @__isoc99_scanf(i8* getelementptr inbounds ([5 x i8], [5 x i8]* @.str, i64 0, i64 0), i32* %15, i8* %8)
  %17 = load i8, i8* %8, align 1
  %18 = sext i8 %17 to i32
  %19 = icmp eq i32 %18, 10
  br i1 %19, label %20, label %22

20:                                               ; preds = %12
  %21 = load i32, i32* %2, align 4
  store i32 %21, i32* %6, align 4
  br label %26

22:                                               ; preds = %12
  br label %23

23:                                               ; preds = %22
  %24 = load i32, i32* %2, align 4
  %25 = add nsw i32 %24, 1
  store i32 %25, i32* %2, align 4
  br label %9

26:                                               ; preds = %20, %9
  store i32 1, i32* %4, align 4
  br label %27

27:                                               ; preds = %73, %26
  %28 = load i32, i32* %4, align 4
  %29 = load i32, i32* %6, align 4
  %30 = icmp sle i32 %28, %29
  br i1 %30, label %31, label %76

31:                                               ; preds = %27
  store i32 0, i32* %2, align 4
  br label %32

32:                                               ; preds = %69, %31
  %33 = load i32, i32* %2, align 4
  %34 = load i32, i32* %6, align 4
  %35 = add nsw i32 %34, 1
  %36 = load i32, i32* %4, align 4
  %37 = sub nsw i32 %35, %36
  %38 = icmp slt i32 %33, %37
  br i1 %38, label %39, label %72

39:                                               ; preds = %32
  %40 = load i32, i32* %2, align 4
  %41 = sext i32 %40 to i64
  %42 = getelementptr inbounds [300 x i32], [300 x i32]* %1, i64 0, i64 %41
  %43 = load i32, i32* %42, align 4
  %44 = load i32, i32* %2, align 4
  %45 = add nsw i32 %44, 1
  %46 = sext i32 %45 to i64
  %47 = getelementptr inbounds [300 x i32], [300 x i32]* %1, i64 0, i64 %46
  %48 = load i32, i32* %47, align 4
  %49 = icmp slt i32 %43, %48
  br i1 %49, label %50, label %68

50:                                               ; preds = %39
  %51 = load i32, i32* %2, align 4
  %52 = sext i32 %51 to i64
  %53 = getelementptr inbounds [300 x i32], [300 x i32]* %1, i64 0, i64 %52
  %54 = load i32, i32* %53, align 4
  store i32 %54, i32* %5, align 4
  %55 = load i32, i32* %2, align 4
  %56 = add nsw i32 %55, 1
  %57 = sext i32 %56 to i64
  %58 = getelementptr inbounds [300 x i32], [300 x i32]* %1, i64 0, i64 %57
  %59 = load i32, i32* %58, align 4
  %60 = load i32, i32* %2, align 4
  %61 = sext i32 %60 to i64
  %62 = getelementptr inbounds [300 x i32], [300 x i32]* %1, i64 0, i64 %61
  store i32 %59, i32* %62, align 4
  %63 = load i32, i32* %5, align 4
  %64 = load i32, i32* %2, align 4
  %65 = add nsw i32 %64, 1
  %66 = sext i32 %65 to i64
  %67 = getelementptr inbounds [300 x i32], [300 x i32]* %1, i64 0, i64 %66
  store i32 %63, i32* %67, align 4
  br label %68

68:                                               ; preds = %50, %39
  br label %69

69:                                               ; preds = %68
  %70 = load i32, i32* %2, align 4
  %71 = add nsw i32 %70, 1
  store i32 %71, i32* %2, align 4
  br label %32

72:                                               ; preds = %32
  br label %73

73:                                               ; preds = %72
  %74 = load i32, i32* %4, align 4
  %75 = add nsw i32 %74, 1
  store i32 %75, i32* %4, align 4
  br label %27

76:                                               ; preds = %27
  %77 = load i32, i32* %6, align 4
  %78 = sext i32 %77 to i64
  %79 = getelementptr inbounds [300 x i32], [300 x i32]* %1, i64 0, i64 %78
  %80 = load i32, i32* %79, align 4
  %81 = getelementptr inbounds [300 x i32], [300 x i32]* %1, i64 0, i64 0
  %82 = load i32, i32* %81, align 16
  %83 = icmp eq i32 %80, %82
  br i1 %83, label %84, label %86

84:                                               ; preds = %76
  %85 = call i32 (i8*, ...) @printf(i8* getelementptr inbounds ([3 x i8], [3 x i8]* @.str.1, i64 0, i64 0))
  br label %86

86:                                               ; preds = %84, %76
  %87 = load i32, i32* %6, align 4
  %88 = sext i32 %87 to i64
  %89 = getelementptr inbounds [300 x i32], [300 x i32]* %1, i64 0, i64 %88
  %90 = load i32, i32* %89, align 4
  %91 = getelementptr inbounds [300 x i32], [300 x i32]* %1, i64 0, i64 0
  %92 = load i32, i32* %91, align 16
  %93 = icmp ne i32 %90, %92
  br i1 %93, label %94, label %120

94:                                               ; preds = %86
  %95 = getelementptr inbounds [300 x i32], [300 x i32]* %1, i64 0, i64 0
  %96 = load i32, i32* %95, align 16
  store i32 %96, i32* %7, align 4
  store i32 0, i32* %3, align 4
  br label %97

97:                                               ; preds = %116, %94
  %98 = load i32, i32* %3, align 4
  %99 = load i32, i32* %6, align 4
  %100 = icmp sle i32 %98, %99
  br i1 %100, label %101, label %119

101:                                              ; preds = %97
  %102 = load i32, i32* %3, align 4
  %103 = sext i32 %102 to i64
  %104 = getelementptr inbounds [300 x i32], [300 x i32]* %1, i64 0, i64 %103
  %105 = load i32, i32* %104, align 4
  %106 = load i32, i32* %7, align 4
  %107 = icmp eq i32 %105, %106
  br i1 %107, label %108, label %109

108:                                              ; preds = %101
  br label %115

109:                                              ; preds = %101
  %110 = load i32, i32* %3, align 4
  %111 = sext i32 %110 to i64
  %112 = getelementptr inbounds [300 x i32], [300 x i32]* %1, i64 0, i64 %111
  %113 = load i32, i32* %112, align 4
  %114 = call i32 (i8*, ...) @printf(i8* getelementptr inbounds ([3 x i8], [3 x i8]* @.str.2, i64 0, i64 0), i32 %113)
  br label %119

115:                                              ; preds = %108
  br label %116

116:                                              ; preds = %115
  %117 = load i32, i32* %3, align 4
  %118 = add nsw i32 %117, 1
  store i32 %118, i32* %3, align 4
  br label %97

119:                                              ; preds = %109, %97
  br label %120

120:                                              ; preds = %119, %86
  ret void
}

declare dso_local i32 @__isoc99_scanf(i8*, ...) #1

declare dso_local i32 @printf(i8*, ...) #1


!llvm.module.flags = !{!0}
!llvm.ident = !{!1}

!0 = !{i32 1, !"wchar_size", i32 4}
!1 = !{!"clang version 10.0.0-4ubuntu1 "}
